; Function Attrs: mustprogress nofree norecurse nosync nounwind willreturn memory(argmem: read) uwtable
define i32 @PQbackendPID(ptr noundef readonly captures(address_is_null) %0) local_unnamed_addr #14 {
  %.not = icmp eq ptr %0, null
  br i1 %.not, label %8, label %2

2:                                                ; preds = %1
  %3 = getelementptr inbounds nuw i8, ptr %0, i64 416
  %4 = load i32, ptr %3, align 8
  %.not4 = icmp eq i32 %4, 0
  br i1 %.not4, label %5, label %8

5:                                                ; preds = %2
  %6 = getelementptr inbounds nuw i8, ptr %0, i64 936
  %7 = load i32, ptr %6, align 8
  br label %8

8:                                                ; preds = %1, %2, %5
  %.0 = phi i32 [ %7, %5 ], [ 0, %2 ], [ 0, %1 ]
  ret i32 %.0
}